target datalayout = "e-m:e-p270:32:32-p271:32:32-p272:64:64-i64:64-i128:128-f80:128-n8:16:32:64-S128"
target triple = "x86_64-pc-linux-gnu"

%struct.hb_object_header_t = type { %struct.hb_reference_count_t, %struct.hb_atomic_int_t, %struct.hb_atomic_ptr_t }
%struct.hb_reference_count_t = type { %struct.hb_atomic_int_t }
%struct.hb_atomic_int_t = type { i32 }
%struct.hb_atomic_ptr_t = type { ptr }
%struct.hb_atomic_ptr_t.1 = type { ptr }
%struct.hb_atomic_ptr_t.5 = type { ptr }
%struct.hb_font_t = type { %struct.hb_object_header_t, i32, i32, ptr, ptr, i32, i32, float, float, i8, i32, i32, float, float, float, float, i64, i64, i32, i32, float, i32, i32, ptr, ptr, ptr, ptr, ptr, %struct.hb_shaper_object_dataset_t }
%struct.hb_shaper_object_dataset_t = type { ptr, %struct.hb_shaper_lazy_loader_t, %struct.hb_shaper_lazy_loader_t.2 }
%struct.hb_shaper_lazy_loader_t = type { %struct.hb_lazy_loader_t }
%struct.hb_lazy_loader_t = type { %struct.hb_atomic_ptr_t.1 }
%struct.hb_shaper_lazy_loader_t.2 = type { %struct.hb_lazy_loader_t.3 }
%struct.hb_lazy_loader_t.3 = type { %struct.hb_atomic_ptr_t.5 }

; Function Attrs: mustprogress nounwind uwtable
define linkonce_odr hidden noundef i32 @_ZNK15hb_atomic_int_t11get_relaxedEv(ptr noundef nonnull align 4 dereferenceable(4) %0) #1 comdat align 2 {
  %2 = alloca ptr, align 8
  %3 = alloca i32, align 4
  store ptr %0, ptr %2, align 8
  %4 = load ptr, ptr %2, align 8
  %5 = getelementptr inbounds %struct.hb_atomic_int_t, ptr %4, i32 0, i32 0
  %6 = load atomic i32, ptr %5 monotonic, align 4
  store i32 %6, ptr %3, align 4
  %7 = load i32, ptr %3, align 4
  ret i32 %7
}

; Function Attrs: mustprogress uwtable
define linkonce_odr hidden noundef i32 @_ZNK15hb_atomic_int_tcviEv(ptr noundef nonnull align 4 dereferenceable(4) %0) #0 comdat align 2 {
  %2 = alloca ptr, align 8
  store ptr %0, ptr %2, align 8
  %3 = load ptr, ptr %2, align 8
  %4 = call noundef i32 @_ZNK15hb_atomic_int_t11get_relaxedEv(ptr noundef nonnull align 4 dereferenceable(4) %3)
  ret i32 %4
}

; Function Attrs: mustprogress uwtable
define internal void @_ZL25_hb_font_adopt_var_coordsP9hb_font_tPiPfj(ptr noundef %0, ptr noundef %1, ptr noundef %2, i32 noundef %3) #0 {
  %5 = alloca ptr, align 8
  %6 = alloca ptr, align 8
  %7 = alloca ptr, align 8
  %8 = alloca i32, align 4
  store ptr %0, ptr %5, align 8
  store ptr %1, ptr %6, align 8
  store ptr %2, ptr %7, align 8
  store i32 %3, ptr %8, align 4
  %9 = load ptr, ptr %5, align 8
  %10 = getelementptr inbounds %struct.hb_font_t, ptr %9, i32 0, i32 23
  %11 = load ptr, ptr %10, align 8
  call void @free(ptr noundef %11) #12
  %12 = load ptr, ptr %5, align 8
  %13 = getelementptr inbounds %struct.hb_font_t, ptr %12, i32 0, i32 24
  %14 = load ptr, ptr %13, align 8
  call void @free(ptr noundef %14) #12
  %15 = load ptr, ptr %6, align 8
  %16 = load ptr, ptr %5, align 8
  %17 = getelementptr inbounds %struct.hb_font_t, ptr %16, i32 0, i32 23
  store ptr %15, ptr %17, align 8
  %18 = load ptr, ptr %7, align 8
  %19 = load ptr, ptr %5, align 8
  %20 = getelementptr inbounds %struct.hb_font_t, ptr %19, i32 0, i32 24
  store ptr %18, ptr %20, align 8
  %21 = load i32, ptr %8, align 4
  %22 = load ptr, ptr %5, align 8
  %23 = getelementptr inbounds %struct.hb_font_t, ptr %22, i32 0, i32 22
  store i32 %21, ptr %23, align 8
  %24 = load ptr, ptr %5, align 8
  call void @_ZN9hb_font_t13mults_changedEv(ptr noundef nonnull align 8 dereferenceable(192) %24)
  ret void
}

; Function Attrs: mustprogress nounwind uwtable
define internal noundef ptr @_ZL9hb_memcpyPvPKvm(ptr noalias noundef %0, ptr noalias noundef %1, i64 noundef %2) #1 {
  %4 = alloca ptr, align 8
  %5 = alloca ptr, align 8
  %6 = alloca ptr, align 8
  %7 = alloca i64, align 8
  store ptr %0, ptr %5, align 8
  store ptr %1, ptr %6, align 8
  store i64 %2, ptr %7, align 8
  %8 = load i64, ptr %7, align 8
  %9 = icmp ne i64 %8, 0
  br i1 %9, label %12, label %10

10:                                               ; preds = %3
  %11 = load ptr, ptr %5, align 8
  store ptr %11, ptr %4, align 8
  br label %16

12:                                               ; preds = %3
  %13 = load ptr, ptr %5, align 8
  %14 = load ptr, ptr %6, align 8
  %15 = load i64, ptr %7, align 8
  call void @llvm.memcpy.p0.p0.i64(ptr align 1 %13, ptr align 1 %14, i64 %15, i1 false)
  store ptr %13, ptr %4, align 8
  br label %16

16:                                               ; preds = %12, %10
  %17 = load ptr, ptr %4, align 8
  ret ptr %17
}

; Function Attrs: mustprogress uwtable
define internal noundef zeroext i1 @_ZL22hb_object_is_immutableI9hb_font_tEbPKT_(ptr noundef %0) #0 {
  %2 = alloca ptr, align 8
  store ptr %0, ptr %2, align 8
  %3 = load ptr, ptr %2, align 8
  %4 = getelementptr inbounds %struct.hb_font_t, ptr %3, i32 0, i32 0
  %5 = getelementptr inbounds %struct.hb_object_header_t, ptr %4, i32 0, i32 1
  %6 = call noundef i32 @_ZNK15hb_atomic_int_tcviEv(ptr noundef nonnull align 4 dereferenceable(4) %5)
  %7 = icmp ne i32 %6, 0
  %8 = xor i1 %7, true
  ret i1 %8
}

; Function Attrs: mustprogress uwtable
define hidden void @hb_font_set_var_coords_design(ptr noundef %0, ptr noundef %1, i32 noundef %2) #0 {
  %4 = alloca ptr, align 8
  %5 = alloca ptr, align 8
  %6 = alloca i32, align 4
  %7 = alloca ptr, align 8
  %8 = alloca ptr, align 8
  store ptr %0, ptr %4, align 8
  store ptr %1, ptr %5, align 8
  store i32 %2, ptr %6, align 4
  %9 = load ptr, ptr %4, align 8
  %10 = call noundef zeroext i1 @_ZL22hb_object_is_immutableI9hb_font_tEbPKT_(ptr noundef %9)
  br i1 %10, label %11, label %12

11:                                               ; preds = %3
  br label %69

12:                                               ; preds = %3
  %13 = load ptr, ptr %4, align 8
  %14 = getelementptr inbounds %struct.hb_font_t, ptr %13, i32 0, i32 1
  %15 = load i32, ptr %14, align 8
  %16 = add i32 %15, 1
  store i32 %16, ptr %14, align 8
  %17 = load ptr, ptr %4, align 8
  %18 = getelementptr inbounds %struct.hb_font_t, ptr %17, i32 0, i32 2
  store i32 %16, ptr %18, align 4
  %19 = load i32, ptr %6, align 4
  %20 = icmp ne i32 %19, 0
  br i1 %20, label %21, label %25

21:                                               ; preds = %12
  %22 = load i32, ptr %6, align 4
  %23 = zext i32 %22 to i64
  %24 = call noalias ptr @calloc(i64 noundef %23, i64 noundef 4) #11
  br label %26

25:                                               ; preds = %12
  br label %26

26:                                               ; preds = %25, %21
  %27 = phi ptr [ %24, %21 ], [ null, %25 ]
  store ptr %27, ptr %7, align 8
  %28 = load i32, ptr %6, align 4
  %29 = icmp ne i32 %28, 0
  br i1 %29, label %30, label %34

30:                                               ; preds = %26
  %31 = load i32, ptr %6, align 4
  %32 = zext i32 %31 to i64
  %33 = call noalias ptr @calloc(i64 noundef %32, i64 noundef 4) #11
  br label %35

34:                                               ; preds = %26
  br label %35

35:                                               ; preds = %34, %30
  %36 = phi ptr [ %33, %30 ], [ null, %34 ]
  store ptr %36, ptr %8, align 8
  %37 = load i32, ptr %6, align 4
  %38 = icmp ne i32 %37, 0
  br i1 %38, label %39, label %48

39:                                               ; preds = %35
  %40 = load ptr, ptr %7, align 8
  %41 = icmp ne ptr %40, null
  br i1 %41, label %42, label %45

42:                                               ; preds = %39
  %43 = load ptr, ptr %8, align 8
  %44 = icmp ne ptr %43, null
  br i1 %44, label %48, label %45

45:                                               ; preds = %42, %39
  %46 = load ptr, ptr %7, align 8
  call void @free(ptr noundef %46) #12
  %47 = load ptr, ptr %8, align 8
  call void @free(ptr noundef %47) #12
  br label %69

48:                                               ; preds = %42, %35
  %49 = load i32, ptr %6, align 4
  %50 = icmp ne i32 %49, 0
  br i1 %50, label %51, label %58

51:                                               ; preds = %48
  %52 = load ptr, ptr %8, align 8
  %53 = load ptr, ptr %5, align 8
  %54 = load i32, ptr %6, align 4
  %55 = zext i32 %54 to i64
  %56 = mul i64 %55, 4
  %57 = call noundef ptr @_ZL9hb_memcpyPvPKvm(ptr noundef %52, ptr noundef %53, i64 noundef %56)
  br label %58

58:                                               ; preds = %51, %48
  %59 = load ptr, ptr %4, align 8
  %60 = getelementptr inbounds %struct.hb_font_t, ptr %59, i32 0, i32 4
  %61 = load ptr, ptr %60, align 8
  %62 = load i32, ptr %6, align 4
  %63 = load ptr, ptr %5, align 8
  %64 = load ptr, ptr %7, align 8
  call void @hb_ot_var_normalize_coords(ptr noundef %61, i32 noundef %62, ptr noundef %63, ptr noundef %64)
  %65 = load ptr, ptr %4, align 8
  %66 = load ptr, ptr %7, align 8
  %67 = load ptr, ptr %8, align 8
  %68 = load i32, ptr %6, align 4
  call void @_ZL25_hb_font_adopt_var_coordsP9hb_font_tPiPfj(ptr noundef %65, ptr noundef %66, ptr noundef %67, i32 noundef %68)
  br label %69

69:                                               ; preds = %58, %45, %11
  ret void
}