; Function Attrs: mustprogress uwtable
define hidden void @hb_font_set_var_coords_design(ptr noundef %0, ptr noundef %1, i32 noundef %2) local_unnamed_addr #1 {
  %4 = getelementptr inbounds i8, ptr %0, i64 4
  %5 = load atomic i32, ptr %4 monotonic, align 4
  %.not.i = icmp eq i32 %5, 0
  br i1 %.not.i, label %29, label %6

6:                                                ; preds = %3
  %7 = getelementptr inbounds i8, ptr %0, i64 16
  %8 = load i32, ptr %7, align 8
  %9 = add i32 %8, 1
  store i32 %9, ptr %7, align 8
  %10 = getelementptr inbounds i8, ptr %0, i64 20
  store i32 %9, ptr %10, align 4
  %.not = icmp eq i32 %2, 0
  br i1 %.not, label %.critedge, label %11

11:                                               ; preds = %6
  %12 = zext i32 %2 to i64
  %13 = tail call noalias ptr @calloc(i64 noundef %12, i64 noundef 4) #23
  %14 = tail call noalias ptr @calloc(i64 noundef %12, i64 noundef 4) #23
  %15 = icmp ne ptr %13, null
  %16 = icmp ne ptr %14, null
  %or.cond = and i1 %15, %16
  br i1 %or.cond, label %18, label %17

17:                                               ; preds = %11
  tail call void @free(ptr noundef %13) #24
  tail call void @free(ptr noundef %14) #24
  br label %29

18:                                               ; preds = %11
  %19 = shl nuw nsw i64 %12, 2
  tail call void @llvm.memcpy.p0.p0.i64(ptr nonnull align 1 %14, ptr readonly align 1 %1, i64 %19, i1 false), !alias.scope !37
  br label %.critedge

.critedge:                                        ; preds = %6, %18
  %20 = phi ptr [ %14, %18 ], [ null, %6 ]
  %21 = phi ptr [ %13, %18 ], [ null, %6 ]
  %22 = getelementptr inbounds i8, ptr %0, i64 32
  %23 = load ptr, ptr %22, align 8
  tail call void @hb_ot_var_normalize_coords(ptr noundef %23, i32 noundef %2, ptr noundef %1, ptr noundef %21)
  %24 = getelementptr inbounds i8, ptr %0, i64 128
  %25 = load ptr, ptr %24, align 8
  tail call void @free(ptr noundef %25) #24
  %26 = getelementptr inbounds i8, ptr %0, i64 136
  %27 = load ptr, ptr %26, align 8
  tail call void @free(ptr noundef %27) #24
  store ptr %21, ptr %24, align 8
  store ptr %20, ptr %26, align 8
  %28 = getelementptr inbounds i8, ptr %0, i64 120
  store i32 %2, ptr %28, align 8
  tail call void @_ZN9hb_font_t13mults_changedEv(ptr noundef nonnull align 8 dereferenceable(192) %0)
  br label %29

29:                                               ; preds = %3, %.critedge, %17
  ret void
}